target datalayout = "e-m:e-p270:32:32-p271:32:32-p272:64:64-i64:64-i128:128-f80:128-n8:16:32:64-S128"
target triple = "x86_64-pc-linux-gnu"

%struct.SDL_Keyboard = type { ptr, i16, [512 x i8], [512 x i8], ptr, i32, i8, i64, i32 }

@.str.4 = private unnamed_addr constant [5 x i8] c"none\00", align 1
@.str.5 = private unnamed_addr constant [12 x i8] c"hide_numpad\00", align 1
@.str.6 = private unnamed_addr constant [15 x i8] c"french_numbers\00", align 1
@.str.7 = private unnamed_addr constant [14 x i8] c"latin_letters\00", align 1

; Function Attrs: nounwind uwtable
define internal void @SDL_KeycodeOptionsChanged(ptr noundef %0, ptr noundef %1, ptr noundef %2, ptr noundef %3) #0 {
  %5 = alloca ptr, align 8
  %6 = alloca ptr, align 8
  %7 = alloca ptr, align 8
  %8 = alloca ptr, align 8
  %9 = alloca ptr, align 8
  store ptr %0, ptr %5, align 8
  store ptr %1, ptr %6, align 8
  store ptr %2, ptr %7, align 8
  store ptr %3, ptr %8, align 8
  call void @llvm.lifetime.start.p0(i64 8, ptr %9) #6
  %10 = load ptr, ptr %5, align 8
  store ptr %10, ptr %9, align 8
  %11 = load ptr, ptr %8, align 8
  %12 = icmp ne ptr %11, null
  br i1 %12, label %13, label %53

13:                                               ; preds = %4
  %14 = load ptr, ptr %8, align 8
  %15 = load i8, ptr %14, align 1
  %16 = sext i8 %15 to i32
  %17 = icmp ne i32 %16, 0
  br i1 %17, label %18, label %53

18:                                               ; preds = %13
  %19 = load ptr, ptr %9, align 8
  %20 = getelementptr inbounds nuw %struct.SDL_Keyboard, ptr %19, i32 0, i32 5
  store i32 0, ptr %20, align 8
  %21 = load ptr, ptr %8, align 8
  %22 = call ptr @SDL_strstr_REAL(ptr noundef %21, ptr noundef @.str.4)
  %23 = icmp ne ptr %22, null
  br i1 %23, label %52, label %24

24:                                               ; preds = %18
  %25 = load ptr, ptr %8, align 8
  %26 = call ptr @SDL_strstr_REAL(ptr noundef %25, ptr noundef @.str.5)
  %27 = icmp ne ptr %26, null
  br i1 %27, label %28, label %33

28:                                               ; preds = %24
  %29 = load ptr, ptr %9, align 8
  %30 = getelementptr inbounds nuw %struct.SDL_Keyboard, ptr %29, i32 0, i32 5
  %31 = load i32, ptr %30, align 8
  %32 = or i32 %31, 1
  store i32 %32, ptr %30, align 8
  br label %33

33:                                               ; preds = %28, %24
  %34 = load ptr, ptr %8, align 8
  %35 = call ptr @SDL_strstr_REAL(ptr noundef %34, ptr noundef @.str.6)
  %36 = icmp ne ptr %35, null
  br i1 %36, label %37, label %42

37:                                               ; preds = %33
  %38 = load ptr, ptr %9, align 8
  %39 = getelementptr inbounds nuw %struct.SDL_Keyboard, ptr %38, i32 0, i32 5
  %40 = load i32, ptr %39, align 8
  %41 = or i32 %40, 2
  store i32 %41, ptr %39, align 8
  br label %42

42:                                               ; preds = %37, %33
  %43 = load ptr, ptr %8, align 8
  %44 = call ptr @SDL_strstr_REAL(ptr noundef %43, ptr noundef @.str.7)
  %45 = icmp ne ptr %44, null
  br i1 %45, label %46, label %51

46:                                               ; preds = %42
  %47 = load ptr, ptr %9, align 8
  %48 = getelementptr inbounds nuw %struct.SDL_Keyboard, ptr %47, i32 0, i32 5
  %49 = load i32, ptr %48, align 8
  %50 = or i32 %49, 4
  store i32 %50, ptr %48, align 8
  br label %51

51:                                               ; preds = %46, %42
  br label %52

52:                                               ; preds = %51, %18
  br label %56

53:                                               ; preds = %13, %4
  %54 = load ptr, ptr %9, align 8
  %55 = getelementptr inbounds nuw %struct.SDL_Keyboard, ptr %54, i32 0, i32 5
  store i32 6, ptr %55, align 8
  br label %56

56:                                               ; preds = %53, %52
  call void @llvm.lifetime.end.p0(i64 8, ptr %9) #6
  ret void
}