; Function Attrs: nounwind uwtable
define internal void @SDL_KeycodeOptionsChanged(ptr noundef captures(none) initializes((1048, 1052)) %0, ptr readnone captures(none) %1, ptr readnone captures(none) %2, ptr noundef %3) #0 {
  %.not = icmp eq ptr %3, null
  br i1 %.not, label %25, label %5

5:                                                ; preds = %4
  %6 = load i8, ptr %3, align 1
  %.not12 = icmp eq i8 %6, 0
  br i1 %.not12, label %25, label %7

7:                                                ; preds = %5
  %8 = getelementptr inbounds nuw i8, ptr %0, i64 1048
  store i32 0, ptr %8, align 8
  %9 = tail call ptr @SDL_strstr_REAL(ptr noundef nonnull %3, ptr noundef nonnull @.str.4) #13
  %.not13 = icmp eq ptr %9, null
  br i1 %.not13, label %10, label %27

10:                                               ; preds = %7
  %11 = tail call ptr @SDL_strstr_REAL(ptr noundef nonnull %3, ptr noundef nonnull @.str.5) #13
  %.not14 = icmp eq ptr %11, null
  br i1 %.not14, label %15, label %12

12:                                               ; preds = %10
  %13 = load i32, ptr %8, align 8
  %14 = or i32 %13, 1
  store i32 %14, ptr %8, align 8
  br label %15

15:                                               ; preds = %12, %10
  %16 = tail call ptr @SDL_strstr_REAL(ptr noundef nonnull %3, ptr noundef nonnull @.str.6) #13
  %.not15 = icmp eq ptr %16, null
  br i1 %.not15, label %20, label %17

17:                                               ; preds = %15
  %18 = load i32, ptr %8, align 8
  %19 = or i32 %18, 2
  store i32 %19, ptr %8, align 8
  br label %20

20:                                               ; preds = %17, %15
  %21 = tail call ptr @SDL_strstr_REAL(ptr noundef nonnull %3, ptr noundef nonnull @.str.7) #13
  %.not16 = icmp eq ptr %21, null
  br i1 %.not16, label %27, label %22

22:                                               ; preds = %20
  %23 = load i32, ptr %8, align 8
  %24 = or i32 %23, 4
  store i32 %24, ptr %8, align 8
  br label %27

25:                                               ; preds = %5, %4
  %26 = getelementptr inbounds nuw i8, ptr %0, i64 1048
  store i32 6, ptr %26, align 8
  br label %27

27:                                               ; preds = %7, %22, %20, %25
  ret void
}